-----BEGIN CERTIFICATE-----
MIIHHjCCBgagAwIBAgIMMwvWgEGIvdHcOSUHMA0GCSqGSIb3DQEBCwUAMGAxCzAJ
BgNVBAYTAkJFMRkwFwYDVQQKExBHbG9iYWxTaWduIG52LXNhMTYwNAYDVQQDEy1H
bG9iYWxTaWduIERvbWFpbiBWYWxpZGF0aW9uIENBIC0gU0hBMjU2IC0gRzIwHhcN
MTcxMTI4MDg0NDA1WhcNMTgxMTI5MDg0NDA1WjBVMSEwHwYDVQQLExhEb21haW4g
Q29udHJvbCBWYWxpZGF0ZWQxMDAuBgNVBAMTJ2gtc2xwLm1uYzAxMC5tY2M3MTYu
cHViLjNncHBuZXR3b3JrLm9yZzCCASIwDQYJKoZIhvcNAQEBBQADggEPADCCAQoC
ggEBAIRW6kLA0OlttOS1OrqUk8rQqJEOovYBWMj08i4whP8NOTA6l9eWTrpElEAM
LjOOEed1VlRPVziRTBw6lUz0L1316/xO8HShgjCsQGK+CS3PwigcOcI9AZZW9+J/
/0fEVCk7zYIlFaUGdP+r8HHbbMKhevg8od1s2+Ip8SCUC7frySMjApLvgQEwxQaD
4g/tHp9s4HI43WvpIX3EsQ1D9GIOGuN7OQ24LA9idzD0aXG1vPqhEgUa/aeYWXJ5
YlGB0MYWm6kEyjEFNzTxFy82JU/EEHQvAPgUSQtrAW29oqrQTbKPPjmzgweSOE0J
XQeSsmxnU7iATIf5lwP9LuK9PJsCAwEAAaOCA+EwggPdMA4GA1UdDwEB/wQEAwIF
oDCBlAYIKwYBBQUHAQEEgYcwgYQwRwYIKwYBBQUHMAKGO2h0dHA6Ly9zZWN1cmUu
Z2xvYmFsc2lnbi5jb20vY2FjZXJ0L2dzZG9tYWludmFsc2hhMmcycjEuY3J0MDkG
CCsGAQUFBzABhi1odHRwOi8vb2NzcDIuZ2xvYmFsc2lnbi5jb20vZ3Nkb21haW52
YWxzaGEyZzIwVgYDVR0gBE8wTTBBBgkrBgEEAaAyAQowNDAyBggrBgEFBQcCARYm
aHR0cHM6Ly93d3cuZ2xvYmFsc2lnbi5jb20vcmVwb3NpdG9yeS8wCAYGZ4EMAQIB
MAkGA1UdEwQCMAAwQwYDVR0fBDwwOjA4oDagNIYyaHR0cDovL2NybC5nbG9iYWxz
aWduLmNvbS9ncy9nc2RvbWFpbnZhbHNoYTJnMi5jcmwwMgYDVR0RBCswKYInaC1z
bHAubW5jMDEwLm1jYzcxNi5wdWIuM2dwcG5ldHdvcmsub3JnMB0GA1UdJQQWMBQG
CCsGAQUFBwMBBggrBgEFBQcDAjAdBgNVHQ4EFgQUabEY7aw33MB5OV1nhXb/sZBH
VsIwHwYDVR0jBBgwFoAU6k581IAt5RWBhiaMgm3AmKTPlw8wggH3BgorBgEEAdZ5
AgQCBIIB5wSCAeMB4QB2AFYUBpov18Ls0/XhvUSyPsdGdrm8mRFcwO+UmFXWidDd
AAABYAHMNHAAAAQDAEcwRQIgI1jWQpDPmpp1iqP6xxil1TnkYZvnGZIOcHgjN9EF
T/ICIQDF1M0+6wVmfPlQtMl/YqKi5kNrQ3Sj+GL3IdNciXECpAB3AG9Tdqwx8DEZ
2JkApFEV/3cVHBHZAsEAKQaNsgiaN9kTAAABYAHMNW4AAAQDAEgwRgIhAJj1WCt7
KbllVorSKwkO2tjSuB/iXkFTWvypxeSh/tDOAiEAsN3bb4vxDVr8D9X8Nv/J26i9
DrFj5kxZY0AArD76ZPgAdwCkuQmQtBhYFIe7E6LMZ3AKPDWYBPkb37jjd80OyA3c
EAAAAWABzDSAAAAEAwBIMEYCIQCSAQO6ONAu+LorXV8iREoD8k649mtU80v34QnD
VNEZxAIhAKan9yCx36cNzX8VKySriLM6xgxmdxwJXtwy+jX/BDntAHUA7ku9t3XO
YLrhQmkfq+GeZqMPfl+wctiDAMR7iXqo/csAAAFgAcw3eAAABAMARjBEAiBLmJMe
ovQlL3scVU6dDPefqueDWrLi6MehtGo4EZ6O8QIgTcyKdDFkp/yPSGqjYRIcAYho
iahBzChcyUMJ/VnNLNYwDQYJKoZIhvcNAQELBQADggEBADD9Wbe4mGVDGuSuvPRQ
va/83KUQ6kfNfsYRHaX4lFxaaR90A60BYExsXjKx0xNxweQkjGeRVHnEXlnc8WhO
XvA0AvpIJbrZn3LgwIbhUNh3+BTeMj65Ca6IEa+QCJ1S/cPgkynotvWEcTF7bD8G
48IPOUEi1dRlk8fYixN7+IuQGd6svSV20dClZBkCpsTSLun8Gj61roHjK3vA9SUL
kxbKtmbWYEXfv7u2n6zzFzQrAX7l/Q+p6007fibZ7BXCmUtSlT+VtJDawCh1iu7l
7BbsOX0nfYzEv4oICjCBJtKbFvPIN5RHw/+Arb/qoO/glE9UjlBXPAMDXmKVKShg
qHQ=
-----END CERTIFICATE-----
Certificate:
    Data:
        Version: 3 (0x2)
        Serial Number:
            33:0b:d6:80:41:88:bd:d1:dc:39:25:07
    Signature Algorithm: sha256WithRSAEncryption
        Issuer: C=BE, O=GlobalSign nv-sa, CN=GlobalSign Domain Validation CA - SHA256 - G2
        Validity
            Not Before: Nov 28 08:44:05 2017 GMT
            Not After : Nov 29 08:44:05 2018 GMT
        Subject: OU=Domain Control Validated, CN=h-slp.mnc010.mcc716.pub.3gppnetwork.org
        Subject Public Key Info:
            Public Key Algorithm: rsaEncryption
                Public-Key: (2048 bit)
                Modulus:
                    00:84:56:ea:42:c0:d0:e9:6d:b4:e4:b5:3a:ba:94:
                    93:ca:d0:a8:91:0e:a2:f6:01:58:c8:f4:f2:2e:30:
                    84:ff:0d:39:30:3a:97:d7:96:4e:ba:44:94:40:0c:
                    2e:33:8e:11:e7:75:56:54:4f:57:38:91:4c:1c:3a:
                    95:4c:f4:2f:5d:f5:eb:fc:4e:f0:74:a1:82:30:ac:
                    40:62:be:09:2d:cf:c2:28:1c:39:c2:3d:01:96:56:
                    f7:e2:7f:ff:47:c4:54:29:3b:cd:82:25:15:a5:06:
                    74:ff:ab:f0:71:db:6c:c2:a1:7a:f8:3c:a1:dd:6c:
                    db:e2:29:f1:20:94:0b:b7:eb:c9:23:23:02:92:ef:
                    81:01:30:c5:06:83:e2:0f:ed:1e:9f:6c:e0:72:38:
                    dd:6b:e9:21:7d:c4:b1:0d:43:f4:62:0e:1a:e3:7b:
                    39:0d:b8:2c:0f:62:77:30:f4:69:71:b5:bc:fa:a1:
                    12:05:1a:fd:a7:98:59:72:79:62:51:81:d0:c6:16:
                    9b:a9:04:ca:31:05:37:34:f1:17:2f:36:25:4f:c4:
                    10:74:2f:00:f8:14:49:0b:6b:01:6d:bd:a2:aa:d0:
                    4d:b2:8f:3e:39:b3:83:07:92:38:4d:09:5d:07:92:
                    b2:6c:67:53:b8:80:4c:87:f9:97:03:fd:2e:e2:bd:
                    3c:9b
                Exponent: 65537 (0x10001)
        X509v3 extensions:
            X509v3 Key Usage: critical
                Digital Signature, Key Encipherment
            Authority Information Access: 
                CA Issuers - URI:http://secure.globalsign.com/cacert/gsdomainvalsha2g2r1.crt
                OCSP - URI:http://ocsp2.globalsign.com/gsdomainvalsha2g2

            X509v3 Certificate Policies: 
                Policy: 1.3.6.1.4.1.4146.1.10
                  CPS: https://www.globalsign.com/repository/
                Policy: 2.23.140.1.2.1

            X509v3 Basic Constraints: 
                CA:FALSE
            X509v3 CRL Distribution Points: 

                Full Name:
                  URI:http://crl.globalsign.com/gs/gsdomainvalsha2g2.crl

            X509v3 Subject Alternative Name: 
                DNS:h-slp.mnc010.mcc716.pub.3gppnetwork.org
            X509v3 Extended Key Usage: 
                TLS Web Server Authentication, TLS Web Client Authentication
            X509v3 Subject Key Identifier: 
                69:B1:18:ED:AC:37:DC:C0:79:39:5D:67:85:76:FF:B1:90:47:56:C2
            X509v3 Authority Key Identifier: 
                keyid:EA:4E:7C:D4:80:2D:E5:15:81:86:26:8C:82:6D:C0:98:A4:CF:97:0F

            1.3.6.1.4.1.11129.2.4.2: 
                .......v.V.../.......D.>.Fv....\....U.......`..4p.....G0E. #X.B....u.......9.a.....px#7..O..!....>..f|.P...b...CkCt..b.!.\.q...w.oSv.1.1.....Q..w.......).....7.....`..5n.....H0F.!...X+{).eV..+........^ASZ.........!....o..Z....6.......c.LYc@..>.d..w.......X......gp
<5.......w........`..4......H0F.!.....8....+]_"DJ..N..kT.K....T....!.... ......+$...:..fw..^.2.5..9..u..K..u.`..Bi....f..~_.r....{.z......`..7x.....F0D. K.....%/{.UN.......Z......j8..... M..t1d...Hj.a....h..A.(\.C..Y.,.
    Signature Algorithm: sha256WithRSAEncryption
         30:fd:59:b7:b8:98:65:43:1a:e4:ae:bc:f4:50:bd:af:fc:dc:
         a5:10:ea:47:cd:7e:c6:11:1d:a5:f8:94:5c:5a:69:1f:74:03:
         ad:01:60:4c:6c:5e:32:b1:d3:13:71:c1:e4:24:8c:67:91:54:
         79:c4:5e:59:dc:f1:68:4e:5e:f0:34:02:fa:48:25:ba:d9:9f:
         72:e0:c0:86:e1:50:d8:77:f8:14:de:32:3e:b9:09:ae:88:11:
         af:90:08:9d:52:fd:c3:e0:93:29:e8:b6:f5:84:71:31:7b:6c:
         3f:06:e3:c2:0f:39:41:22:d5:d4:65:93:c7:d8:8b:13:7b:f8:
         8b:90:19:de:ac:bd:25:76:d1:d0:a5:64:19:02:a6:c4:d2:2e:
         e9:fc:1a:3e:b5:ae:81:e3:2b:7b:c0:f5:25:0b:93:16:ca:b6:
         66:d6:60:45:df:bf:bb:b6:9f:ac:f3:17:34:2b:01:7e:e5:fd:
         0f:a9:eb:4d:3b:7e:26:d9:ec:15:c2:99:4b:52:95:3f:95:b4:
         90:da:c0:28:75:8a:ee:e5:ec:16:ec:39:7d:27:7d:8c:c4:bf:
         8a:08:0a:30:81:26:d2:9b:16:f3:c8:37:94:47:c3:ff:80:ad:
         bf:ea:a0:ef:e0:94:4f:54:8e:50:57:3c:03:03:5e:62:95:29:
         28:60:a8:74
SHA1 Fingerprint=0F:D3:6A:BE:D0:33:D8:2A:40:64:AC:7D:B1:86:E1:9B:83:83:9F:10
